; Function Attrs: mustprogress uwtable
define hidden void @_Z9unmarshalRSiR11ast_manager(ptr dead_on_unwind noalias writable writeonly sret(%class.obj_ref) align 8 captures(none) %0, ptr noundef nonnull align 8 dereferenceable(16) %1, ptr noundef nonnull align 8 dereferenceable(976) %2) local_unnamed_addr #3 personality ptr @__gxx_personality_v0 {
  %4 = alloca %class.cmd_context, align 8
  %5 = alloca %class.params_ref, align 8
  call void @llvm.lifetime.start.p0(i64 896, ptr nonnull %4) #17
  call void @_ZN11cmd_contextC1EbP11ast_managerRK6symbol(ptr noundef nonnull align 8 dereferenceable(896) %4, i1 noundef zeroext false, ptr noundef nonnull %2, ptr noundef nonnull align 8 dereferenceable(8) @_ZN6symbol4nullE)
  %6 = getelementptr inbounds nuw i8, ptr %4, i64 273
  store i8 1, ptr %6, align 1, !tbaa !49
  call void @llvm.lifetime.start.p0(i64 8, ptr nonnull %5) #17
  store ptr null, ptr %5, align 8, !tbaa !165
  %7 = invoke noundef zeroext i1 @_Z19parse_smt2_commandsR11cmd_contextRSibRK10params_refPKc(ptr noundef nonnull align 8 dereferenceable(896) %4, ptr noundef nonnull align 8 dereferenceable(16) %1, i1 noundef zeroext false, ptr noundef nonnull align 8 dereferenceable(8) %5, ptr noundef null)
          to label %8 unwind label %11

8:                                                ; preds = %3
  call void @_ZN10params_refD1Ev(ptr noundef nonnull align 8 dereferenceable(8) %5) #17
  call void @llvm.lifetime.end.p0(i64 8, ptr nonnull %5) #17
  br i1 %7, label %13, label %9

9:                                                ; preds = %8
  store ptr null, ptr %0, align 8, !tbaa !3
  %10 = getelementptr inbounds nuw i8, ptr %0, i64 8
  store ptr %2, ptr %10, align 8, !tbaa !31
  br label %_ZN7obj_refI4expr11ast_managerEC2EPS0_RS1_.exit

11:                                               ; preds = %3
  %12 = landingpad { ptr, i32 }
          cleanup
  call void @_ZN10params_refD1Ev(ptr noundef nonnull align 8 dereferenceable(8) %5) #17
  call void @llvm.lifetime.end.p0(i64 8, ptr nonnull %5) #17
  br label %28

13:                                               ; preds = %8
  %14 = getelementptr inbounds nuw i8, ptr %4, i64 760
  %15 = load ptr, ptr %14, align 8, !tbaa !17
  %16 = icmp eq ptr %15, null
  br i1 %16, label %_ZNK6vectorIP4exprLb0EjE4sizeEv.exit, label %17

17:                                               ; preds = %13
  %18 = getelementptr inbounds i8, ptr %15, i64 -4
  %19 = load i32, ptr %18, align 4, !tbaa !21
  br label %_ZNK6vectorIP4exprLb0EjE4sizeEv.exit

_ZNK6vectorIP4exprLb0EjE4sizeEv.exit:             ; preds = %13, %17
  %.0.i = phi i32 [ %19, %17 ], [ 0, %13 ]
  %20 = invoke noundef ptr @_Z6mk_andR11ast_managerjPKP4expr(ptr noundef nonnull align 8 dereferenceable(976) %2, i32 noundef %.0.i, ptr noundef %15)
          to label %21 unwind label %26

21:                                               ; preds = %_ZNK6vectorIP4exprLb0EjE4sizeEv.exit
  store ptr %20, ptr %0, align 8, !tbaa !3
  %22 = getelementptr inbounds nuw i8, ptr %0, i64 8
  store ptr %2, ptr %22, align 8, !tbaa !31
  %.not.i.i = icmp eq ptr %20, null
  br i1 %.not.i.i, label %_ZN7obj_refI4expr11ast_managerEC2EPS0_RS1_.exit, label %_ZN11ast_manager7inc_refEP3ast.exit.i.i

_ZN11ast_manager7inc_refEP3ast.exit.i.i:          ; preds = %21
  %23 = getelementptr inbounds nuw i8, ptr %20, i64 8
  %24 = load i32, ptr %23, align 4, !tbaa !26
  %25 = add i32 %24, 1
  store i32 %25, ptr %23, align 4, !tbaa !26
  br label %_ZN7obj_refI4expr11ast_managerEC2EPS0_RS1_.exit

26:                                               ; preds = %_ZNK6vectorIP4exprLb0EjE4sizeEv.exit
  %27 = landingpad { ptr, i32 }
          cleanup
  br label %28

_ZN7obj_refI4expr11ast_managerEC2EPS0_RS1_.exit:  ; preds = %_ZN11ast_manager7inc_refEP3ast.exit.i.i, %21, %9
  call void @_ZN11cmd_contextD1Ev(ptr noundef nonnull align 8 dereferenceable(896) %4) #17
  call void @llvm.lifetime.end.p0(i64 896, ptr nonnull %4) #17
  ret void

28:                                               ; preds = %26, %11
  %.pn = phi { ptr, i32 } [ %27, %26 ], [ %12, %11 ]
  call void @_ZN11cmd_contextD1Ev(ptr noundef nonnull align 8 dereferenceable(896) %4) #17
  call void @llvm.lifetime.end.p0(i64 896, ptr nonnull %4) #17
  resume { ptr, i32 } %.pn
}